target datalayout = "e-m:e-p270:32:32-p271:32:32-p272:64:64-i64:64-i128:128-f80:128-n8:16:32:64-S128"
target triple = "x86_64-pc-linux-gnu"

%struct.ident_t = type { i32, i32, i32, i32, ptr }
%"class.open3d::pipelines::integration::UniformTSDFVolume" = type { %"class.open3d::pipelines::integration::TSDFVolume.base", %"class.std::vector", %"class.Eigen::Matrix.16", double, i32, i32 }
%"class.open3d::pipelines::integration::TSDFVolume.base" = type <{ ptr, double, double, i32 }>
%"class.std::vector" = type { %"struct.std::_Vector_base" }
%"struct.std::_Vector_base" = type { %"struct.std::_Vector_base<open3d::geometry::TSDFVoxel, std::allocator<open3d::geometry::TSDFVoxel>>::_Vector_impl" }
%"struct.std::_Vector_base<open3d::geometry::TSDFVoxel, std::allocator<open3d::geometry::TSDFVoxel>>::_Vector_impl" = type { %"struct.std::_Vector_base<open3d::geometry::TSDFVoxel, std::allocator<open3d::geometry::TSDFVoxel>>::_Vector_impl_data" }
%"struct.std::_Vector_base<open3d::geometry::TSDFVoxel, std::allocator<open3d::geometry::TSDFVoxel>>::_Vector_impl_data" = type { ptr, ptr, ptr }
%"class.Eigen::Matrix.16" = type { %"class.Eigen::PlainObjectBase.17" }
%"class.Eigen::PlainObjectBase.17" = type { %"class.Eigen::DenseStorage.24" }
%"class.Eigen::DenseStorage.24" = type { %"struct.Eigen::internal::plain_array.25" }
%"struct.Eigen::internal::plain_array.25" = type { [3 x double] }
%"class.std::vector.291" = type { %"struct.std::_Vector_base.292" }
%"struct.std::_Vector_base.292" = type { %"struct.std::_Vector_base<Eigen::Matrix<double, 2, 1>, std::allocator<Eigen::Matrix<double, 2, 1>>>::_Vector_impl" }
%"struct.std::_Vector_base<Eigen::Matrix<double, 2, 1>, std::allocator<Eigen::Matrix<double, 2, 1>>>::_Vector_impl" = type { %"struct.std::_Vector_base<Eigen::Matrix<double, 2, 1>, std::allocator<Eigen::Matrix<double, 2, 1>>>::_Vector_impl_data" }
%"struct.std::_Vector_base<Eigen::Matrix<double, 2, 1>, std::allocator<Eigen::Matrix<double, 2, 1>>>::_Vector_impl_data" = type { ptr, ptr, ptr }

@2 = private unnamed_addr constant %struct.ident_t { i32 0, i32 2, i32 0, i32 22, ptr @0 }, align 8

; Function Attrs: mustprogress nounwind ssp uwtable
define linkonce_odr void @_ZNSt15__new_allocatorIN5Eigen6MatrixIdLi2ELi1ELi0ELi2ELi1EEEE10deallocateEPS2_m(ptr noundef nonnull align 1 dereferenceable(1) %0, ptr noundef %1, i64 noundef %2) #0 comdat align 2 {
  %4 = alloca ptr, align 8
  %5 = alloca ptr, align 8
  %6 = alloca i64, align 8
  store ptr %0, ptr %4, align 8, !tbaa !1272
  store ptr %1, ptr %5, align 8, !tbaa !1747
  store i64 %2, ptr %6, align 8, !tbaa !140
  %7 = load ptr, ptr %5, align 8, !tbaa !1747
  %8 = load i64, ptr %6, align 8, !tbaa !140
  %9 = mul i64 %8, 16
  call void @_ZdlPvm(ptr noundef %7, i64 noundef %9) #33
  ret void
}

; Function Attrs: alwaysinline mustprogress nounwind ssp uwtable
define linkonce_odr void @_ZNSt15__new_allocatorIN5Eigen6MatrixIdLi2ELi1ELi0ELi2ELi1EEEEC2Ev(ptr noundef nonnull align 1 dereferenceable(1) %0) unnamed_addr #6 comdat align 2 {
  %2 = alloca ptr, align 8
  store ptr %0, ptr %2, align 8, !tbaa !1272
  ret void
}

; Function Attrs: alwaysinline mustprogress ssp uwtable
define linkonce_odr void @_ZNSt16allocator_traitsISaIN5Eigen6MatrixIdLi2ELi1ELi0ELi2ELi1EEEEE10deallocateERS3_PS2_m(ptr noundef nonnull align 1 dereferenceable(1) %0, ptr noundef %1, i64 noundef %2) #8 comdat align 2 {
  %4 = alloca ptr, align 8
  %5 = alloca ptr, align 8
  %6 = alloca i64, align 8
  store ptr %0, ptr %4, align 8, !tbaa !1263
  store ptr %1, ptr %5, align 8, !tbaa !1747
  store i64 %2, ptr %6, align 8, !tbaa !140
  %7 = load ptr, ptr %4, align 8, !tbaa !1263
  %8 = load ptr, ptr %5, align 8, !tbaa !1747
  %9 = load i64, ptr %6, align 8, !tbaa !140
  call void @_ZNSt15__new_allocatorIN5Eigen6MatrixIdLi2ELi1ELi0ELi2ELi1EEEE10deallocateEPS2_m(ptr noundef nonnull align 1 dereferenceable(1) %7, ptr noundef %8, i64 noundef %9)
  ret void
}

; Function Attrs: mustprogress nounwind ssp uwtable
define linkonce_odr void @_ZNSt12_Destroy_auxILb1EE9__destroyIPN5Eigen6MatrixIdLi2ELi1ELi0ELi2ELi1EEEEEvT_S6_(ptr noundef %0, ptr noundef %1) #0 comdat align 2 {
  %3 = alloca ptr, align 8
  %4 = alloca ptr, align 8
  store ptr %0, ptr %3, align 8, !tbaa !1747
  store ptr %1, ptr %4, align 8, !tbaa !1747
  ret void
}

; Function Attrs: mustprogress nounwind ssp uwtable
define linkonce_odr void @_ZNSt12_Vector_baseIN5Eigen6MatrixIdLi2ELi1ELi0ELi2ELi1EEESaIS2_EE17_Vector_impl_dataC2Ev(ptr noundef nonnull align 8 dereferenceable(24) %0) unnamed_addr #0 comdat align 2 {
  %2 = alloca ptr, align 8
  store ptr %0, ptr %2, align 8, !tbaa !1265
  %3 = load ptr, ptr %2, align 8
  %4 = getelementptr inbounds nuw %"struct.std::_Vector_base<Eigen::Matrix<double, 2, 1>, std::allocator<Eigen::Matrix<double, 2, 1>>>::_Vector_impl_data", ptr %3, i32 0, i32 0
  store ptr null, ptr %4, align 8, !tbaa !1267
  %5 = getelementptr inbounds nuw %"struct.std::_Vector_base<Eigen::Matrix<double, 2, 1>, std::allocator<Eigen::Matrix<double, 2, 1>>>::_Vector_impl_data", ptr %3, i32 0, i32 1
  store ptr null, ptr %5, align 8, !tbaa !1270
  %6 = getelementptr inbounds nuw %"struct.std::_Vector_base<Eigen::Matrix<double, 2, 1>, std::allocator<Eigen::Matrix<double, 2, 1>>>::_Vector_impl_data", ptr %3, i32 0, i32 2
  store ptr null, ptr %6, align 8, !tbaa !1271
  ret void
}

; Function Attrs: alwaysinline mustprogress nounwind ssp uwtable
define linkonce_odr void @_ZNSaIN5Eigen6MatrixIdLi2ELi1ELi0ELi2ELi1EEEEC2Ev(ptr noundef nonnull align 1 dereferenceable(1) %0) unnamed_addr #6 comdat align 2 {
  %2 = alloca ptr, align 8
  store ptr %0, ptr %2, align 8, !tbaa !1263
  %3 = load ptr, ptr %2, align 8
  call void @_ZNSt15__new_allocatorIN5Eigen6MatrixIdLi2ELi1ELi0ELi2ELi1EEEEC2Ev(ptr noundef nonnull align 1 dereferenceable(1) %3) #32
  ret void
}

; Function Attrs: mustprogress nounwind ssp uwtable
define linkonce_odr void @_ZNSt15__new_allocatorIN5Eigen6MatrixIdLi2ELi1ELi0ELi2ELi1EEEED2Ev(ptr noundef nonnull align 1 dereferenceable(1) %0) unnamed_addr #0 comdat align 2 {
  %2 = alloca ptr, align 8
  store ptr %0, ptr %2, align 8, !tbaa !1272
  ret void
}

; Function Attrs: mustprogress ssp uwtable
define linkonce_odr void @_ZNSt12_Vector_baseIN5Eigen6MatrixIdLi2ELi1ELi0ELi2ELi1EEESaIS2_EE13_M_deallocateEPS2_m(ptr noundef nonnull align 8 dereferenceable(24) %0, ptr noundef %1, i64 noundef %2) #1 comdat align 2 {
  %4 = alloca ptr, align 8
  %5 = alloca ptr, align 8
  %6 = alloca i64, align 8
  store ptr %0, ptr %4, align 8, !tbaa !1259
  store ptr %1, ptr %5, align 8, !tbaa !1747
  store i64 %2, ptr %6, align 8, !tbaa !140
  %7 = load ptr, ptr %4, align 8
  %8 = load ptr, ptr %5, align 8, !tbaa !1747
  %9 = icmp ne ptr %8, null
  br i1 %9, label %10, label %14

10:                                               ; preds = %3
  %11 = getelementptr inbounds nuw %"struct.std::_Vector_base.292", ptr %7, i32 0, i32 0
  %12 = load ptr, ptr %5, align 8, !tbaa !1747
  %13 = load i64, ptr %6, align 8, !tbaa !140
  call void @_ZNSt16allocator_traitsISaIN5Eigen6MatrixIdLi2ELi1ELi0ELi2ELi1EEEEE10deallocateERS3_PS2_m(ptr noundef nonnull align 1 dereferenceable(1) %11, ptr noundef %12, i64 noundef %13)
  br label %14

14:                                               ; preds = %10, %3
  ret void
}

; Function Attrs: inlinehint mustprogress ssp uwtable
define linkonce_odr void @_ZSt8_DestroyIPN5Eigen6MatrixIdLi2ELi1ELi0ELi2ELi1EEEEvT_S4_(ptr noundef %0, ptr noundef %1) #4 comdat {
  %3 = alloca ptr, align 8
  %4 = alloca ptr, align 8
  store ptr %0, ptr %3, align 8, !tbaa !1747
  store ptr %1, ptr %4, align 8, !tbaa !1747
  %5 = load ptr, ptr %3, align 8, !tbaa !1747
  %6 = load ptr, ptr %4, align 8, !tbaa !1747
  call void @_ZNSt12_Destroy_auxILb1EE9__destroyIPN5Eigen6MatrixIdLi2ELi1ELi0ELi2ELi1EEEEEvT_S6_(ptr noundef %5, ptr noundef %6)
  ret void
}

; Function Attrs: mustprogress nounwind ssp uwtable
define linkonce_odr void @_ZNSt12_Vector_baseIN5Eigen6MatrixIdLi2ELi1ELi0ELi2ELi1EEESaIS2_EE12_Vector_implC2Ev(ptr noundef nonnull align 8 dereferenceable(24) %0) unnamed_addr #0 comdat align 2 {
  %2 = alloca ptr, align 8
  store ptr %0, ptr %2, align 8, !tbaa !1261
  %3 = load ptr, ptr %2, align 8
  call void @_ZNSaIN5Eigen6MatrixIdLi2ELi1ELi0ELi2ELi1EEEEC2Ev(ptr noundef nonnull align 1 dereferenceable(1) %3) #32
  call void @_ZNSt12_Vector_baseIN5Eigen6MatrixIdLi2ELi1ELi0ELi2ELi1EEESaIS2_EE17_Vector_impl_dataC2Ev(ptr noundef nonnull align 8 dereferenceable(24) %3) #32
  ret void
}

; Function Attrs: noinline noreturn nounwind ssp uwtable
define linkonce_odr hidden void @__clang_call_terminate(ptr noundef %0) #9 comdat {
  %2 = call ptr @__cxa_begin_catch(ptr %0) #32
  call void @_ZSt9terminatev() #35
  unreachable
}

; Function Attrs: mustprogress nounwind ssp uwtable
define linkonce_odr void @_ZNSt12_Vector_baseIN5Eigen6MatrixIdLi2ELi1ELi0ELi2ELi1EEESaIS2_EED2Ev(ptr noundef nonnull align 8 dereferenceable(24) %0) unnamed_addr #0 comdat align 2 personality ptr @__gxx_personality_v0 {
  %2 = alloca ptr, align 8
  store ptr %0, ptr %2, align 8, !tbaa !1259
  %3 = load ptr, ptr %2, align 8
  %4 = getelementptr inbounds nuw %"struct.std::_Vector_base.292", ptr %3, i32 0, i32 0
  %5 = getelementptr inbounds nuw %"struct.std::_Vector_base<Eigen::Matrix<double, 2, 1>, std::allocator<Eigen::Matrix<double, 2, 1>>>::_Vector_impl_data", ptr %4, i32 0, i32 0
  %6 = load ptr, ptr %5, align 8, !tbaa !1267
  %7 = getelementptr inbounds nuw %"struct.std::_Vector_base.292", ptr %3, i32 0, i32 0
  %8 = getelementptr inbounds nuw %"struct.std::_Vector_base<Eigen::Matrix<double, 2, 1>, std::allocator<Eigen::Matrix<double, 2, 1>>>::_Vector_impl_data", ptr %7, i32 0, i32 2
  %9 = load ptr, ptr %8, align 8, !tbaa !1271
  %10 = getelementptr inbounds nuw %"struct.std::_Vector_base.292", ptr %3, i32 0, i32 0
  %11 = getelementptr inbounds nuw %"struct.std::_Vector_base<Eigen::Matrix<double, 2, 1>, std::allocator<Eigen::Matrix<double, 2, 1>>>::_Vector_impl_data", ptr %10, i32 0, i32 0
  %12 = load ptr, ptr %11, align 8, !tbaa !1267
  %13 = ptrtoint ptr %9 to i64
  %14 = ptrtoint ptr %12 to i64
  %15 = sub i64 %13, %14
  %16 = sdiv exact i64 %15, 16
  invoke void @_ZNSt12_Vector_baseIN5Eigen6MatrixIdLi2ELi1ELi0ELi2ELi1EEESaIS2_EE13_M_deallocateEPS2_m(ptr noundef nonnull align 8 dereferenceable(24) %3, ptr noundef %6, i64 noundef %16)
          to label %17 unwind label %19

17:                                               ; preds = %1
  %18 = getelementptr inbounds nuw %"struct.std::_Vector_base.292", ptr %3, i32 0, i32 0
  call void @_ZNSt15__new_allocatorIN5Eigen6MatrixIdLi2ELi1ELi0ELi2ELi1EEEED2Ev(ptr noundef nonnull align 8 dereferenceable(24) %18) #32
  ret void

19:                                               ; preds = %1
  %20 = landingpad { ptr, i32 }
          catch ptr null
  %21 = extractvalue { ptr, i32 } %20, 0
  call void @__clang_call_terminate(ptr %21) #35
  unreachable
}

; Function Attrs: alwaysinline mustprogress ssp uwtable
define linkonce_odr void @_ZSt8_DestroyIPN5Eigen6MatrixIdLi2ELi1ELi0ELi2ELi1EEES2_EvT_S4_RSaIT0_E(ptr noundef %0, ptr noundef %1, ptr noundef nonnull align 1 dereferenceable(1) %2) #8 comdat {
  %4 = alloca ptr, align 8
  %5 = alloca ptr, align 8
  %6 = alloca ptr, align 8
  store ptr %0, ptr %4, align 8, !tbaa !1747
  store ptr %1, ptr %5, align 8, !tbaa !1747
  store ptr %2, ptr %6, align 8, !tbaa !1263
  %7 = load ptr, ptr %4, align 8, !tbaa !1747
  %8 = load ptr, ptr %5, align 8, !tbaa !1747
  call void @_ZSt8_DestroyIPN5Eigen6MatrixIdLi2ELi1ELi0ELi2ELi1EEEEvT_S4_(ptr noundef %7, ptr noundef %8)
  ret void
}

; Function Attrs: mustprogress nounwind ssp uwtable
define linkonce_odr noundef nonnull align 1 dereferenceable(1) ptr @_ZNSt12_Vector_baseIN5Eigen6MatrixIdLi2ELi1ELi0ELi2ELi1EEESaIS2_EE19_M_get_Tp_allocatorEv(ptr noundef nonnull align 8 dereferenceable(24) %0) #0 comdat align 2 {
  %2 = alloca ptr, align 8
  store ptr %0, ptr %2, align 8, !tbaa !1259
  %3 = load ptr, ptr %2, align 8
  %4 = getelementptr inbounds nuw %"struct.std::_Vector_base.292", ptr %3, i32 0, i32 0
  ret ptr %4
}

; Function Attrs: mustprogress nounwind ssp uwtable
define linkonce_odr void @_ZNSt12_Vector_baseIN5Eigen6MatrixIdLi2ELi1ELi0ELi2ELi1EEESaIS2_EEC2Ev(ptr noundef nonnull align 8 dereferenceable(24) %0) unnamed_addr #0 comdat align 2 {
  %2 = alloca ptr, align 8
  store ptr %0, ptr %2, align 8, !tbaa !1259
  %3 = load ptr, ptr %2, align 8
  %4 = getelementptr inbounds nuw %"struct.std::_Vector_base.292", ptr %3, i32 0, i32 0
  call void @_ZNSt12_Vector_baseIN5Eigen6MatrixIdLi2ELi1ELi0ELi2ELi1EEESaIS2_EE12_Vector_implC2Ev(ptr noundef nonnull align 8 dereferenceable(24) %4) #32
  ret void
}

; Function Attrs: mustprogress nounwind ssp uwtable
define linkonce_odr void @_ZNSt6vectorIN5Eigen6MatrixIdLi2ELi1ELi0ELi2ELi1EEESaIS2_EED2Ev(ptr noundef nonnull align 8 dereferenceable(24) %0) unnamed_addr #0 comdat align 2 personality ptr @__gxx_personality_v0 {
  %2 = alloca ptr, align 8
  store ptr %0, ptr %2, align 8, !tbaa !1222
  %3 = load ptr, ptr %2, align 8
  %4 = getelementptr inbounds nuw %"struct.std::_Vector_base.292", ptr %3, i32 0, i32 0
  %5 = getelementptr inbounds nuw %"struct.std::_Vector_base<Eigen::Matrix<double, 2, 1>, std::allocator<Eigen::Matrix<double, 2, 1>>>::_Vector_impl_data", ptr %4, i32 0, i32 0
  %6 = load ptr, ptr %5, align 8, !tbaa !1267
  %7 = getelementptr inbounds nuw %"struct.std::_Vector_base.292", ptr %3, i32 0, i32 0
  %8 = getelementptr inbounds nuw %"struct.std::_Vector_base<Eigen::Matrix<double, 2, 1>, std::allocator<Eigen::Matrix<double, 2, 1>>>::_Vector_impl_data", ptr %7, i32 0, i32 1
  %9 = load ptr, ptr %8, align 8, !tbaa !1270
  %10 = call noundef nonnull align 1 dereferenceable(1) ptr @_ZNSt12_Vector_baseIN5Eigen6MatrixIdLi2ELi1ELi0ELi2ELi1EEESaIS2_EE19_M_get_Tp_allocatorEv(ptr noundef nonnull align 8 dereferenceable(24) %3) #32
  invoke void @_ZSt8_DestroyIPN5Eigen6MatrixIdLi2ELi1ELi0ELi2ELi1EEES2_EvT_S4_RSaIT0_E(ptr noundef %6, ptr noundef %9, ptr noundef nonnull align 1 dereferenceable(1) %10)
          to label %11 unwind label %12

11:                                               ; preds = %1
  call void @_ZNSt12_Vector_baseIN5Eigen6MatrixIdLi2ELi1ELi0ELi2ELi1EEESaIS2_EED2Ev(ptr noundef nonnull align 8 dereferenceable(24) %3) #32
  ret void

12:                                               ; preds = %1
  %13 = landingpad { ptr, i32 }
          catch ptr null
  %14 = extractvalue { ptr, i32 } %13, 0
  call void @__clang_call_terminate(ptr %14) #35
  unreachable
}

; Function Attrs: mustprogress nounwind ssp uwtable
define linkonce_odr void @_ZNSt6vectorIN5Eigen6MatrixIdLi2ELi1ELi0ELi2ELi1EEESaIS2_EEC2Ev(ptr noundef nonnull align 8 dereferenceable(24) %0) unnamed_addr #0 comdat align 2 {
  %2 = alloca ptr, align 8
  store ptr %0, ptr %2, align 8, !tbaa !1222
  %3 = load ptr, ptr %2, align 8
  call void @_ZNSt12_Vector_baseIN5Eigen6MatrixIdLi2ELi1ELi0ELi2ELi1EEESaIS2_EEC2Ev(ptr noundef nonnull align 8 dereferenceable(24) %3) #32
  ret void
}

; Function Attrs: mustprogress ssp uwtable
define void @_ZNK6open3d9pipelines11integration17UniformTSDFVolume17ExtractVolumeTSDFEv(ptr dead_on_unwind noalias writable sret(%"class.std::vector.291") align 8 %0, ptr noundef nonnull align 8 dereferenceable(96) %1) #1 align 2 personality ptr @__gxx_personality_v0 {
  %3 = alloca ptr, align 8
  %4 = alloca ptr, align 8
  %5 = alloca i1, align 1
  %6 = alloca ptr, align 8
  %7 = alloca i32, align 4
  %8 = call i32 @__kmpc_global_thread_num(ptr @2)
  store ptr %0, ptr %3, align 8
  store ptr %1, ptr %4, align 8, !tbaa !4
  %9 = load ptr, ptr %4, align 8
  store i1 false, ptr %5, align 1
  call void @_ZNSt6vectorIN5Eigen6MatrixIdLi2ELi1ELi0ELi2ELi1EEESaIS2_EEC2Ev(ptr noundef nonnull align 8 dereferenceable(24) %0) #32
  %10 = getelementptr inbounds nuw %"class.open3d::pipelines::integration::UniformTSDFVolume", ptr %9, i32 0, i32 5
  %11 = load i32, ptr %10, align 4, !tbaa !134
  %12 = sext i32 %11 to i64
  invoke void @_ZNSt6vectorIN5Eigen6MatrixIdLi2ELi1ELi0ELi2ELi1EEESaIS2_EE6resizeEm(ptr noundef nonnull align 8 dereferenceable(24) %0, i64 noundef %12)
          to label %13 unwind label %17

13:                                               ; preds = %2
  %14 = invoke noundef i32 @_ZN6open3d7utility18EstimateMaxThreadsEv()
          to label %15 unwind label %17

15:                                               ; preds = %13
  call void @__kmpc_push_num_threads(ptr @2, i32 %8, i32 %14)
  call void (ptr, i32, ptr, ...) @__kmpc_fork_call(ptr @2, i32 2, ptr @_ZNK6open3d9pipelines11integration17UniformTSDFVolume17ExtractVolumeTSDFEv.omp_outlined, ptr %9, ptr %0)
  store i1 true, ptr %5, align 1
  %16 = load i1, ptr %5, align 1
  br i1 %16, label %22, label %21

17:                                               ; preds = %13, %2
  %18 = landingpad { ptr, i32 }
          cleanup
  %19 = extractvalue { ptr, i32 } %18, 0
  store ptr %19, ptr %6, align 8
  %20 = extractvalue { ptr, i32 } %18, 1
  store i32 %20, ptr %7, align 4
  call void @_ZNSt6vectorIN5Eigen6MatrixIdLi2ELi1ELi0ELi2ELi1EEESaIS2_EED2Ev(ptr noundef nonnull align 8 dereferenceable(24) %0) #32
  br label %23

21:                                               ; preds = %15
  call void @_ZNSt6vectorIN5Eigen6MatrixIdLi2ELi1ELi0ELi2ELi1EEESaIS2_EED2Ev(ptr noundef nonnull align 8 dereferenceable(24) %0) #32
  br label %22

22:                                               ; preds = %21, %15
  ret void

23:                                               ; preds = %17
  %24 = load ptr, ptr %6, align 8
  %25 = load i32, ptr %7, align 4
  %26 = insertvalue { ptr, i32 } poison, ptr %24, 0
  %27 = insertvalue { ptr, i32 } %26, i32 %25, 1
  resume { ptr, i32 } %27
}